; Function Attrs: nounwind uwtable
define i32 @uriParseSingleUriExMmW(ptr noundef %0, ptr noundef %1, ptr noundef %2, ptr noundef writeonly captures(address_is_null) %3, ptr noundef %4) local_unnamed_addr #0 {
  %6 = alloca %struct.UriParserStateStructW, align 8
  call void @llvm.lifetime.start.p0(i64 32, ptr nonnull %6) #7
  %7 = icmp eq ptr %0, null
  %8 = icmp eq ptr %1, null
  %or.cond = or i1 %7, %8
  %9 = icmp eq ptr %2, null
  %or.cond3 = or i1 %or.cond, %9
  br i1 %or.cond3, label %22, label %10

10:                                               ; preds = %5
  %11 = icmp eq ptr %4, null
  br i1 %11, label %14, label %12

12:                                               ; preds = %10
  %13 = tail call i32 @uriMemoryManagerIsComplete(ptr noundef nonnull %4) #7
  %.not = icmp eq i32 %13, 1
  br i1 %.not, label %14, label %22

14:                                               ; preds = %10, %12
  %.018 = phi ptr [ %4, %12 ], [ @defaultMemoryManager, %10 ]
  store ptr %0, ptr %6, align 8, !tbaa !51
  %15 = call fastcc i32 @uriParseUriExMmW(ptr noundef nonnull %6, ptr noundef nonnull %1, ptr noundef nonnull %2, ptr noundef nonnull %.018)
  %.not24 = icmp eq i32 %15, 0
  br i1 %.not24, label %22, label %16

16:                                               ; preds = %14
  %.not25 = icmp eq ptr %3, null
  br i1 %.not25, label %20, label %17

17:                                               ; preds = %16
  %18 = getelementptr inbounds nuw i8, ptr %6, i64 16
  %19 = load ptr, ptr %18, align 8, !tbaa !68
  store ptr %19, ptr %3, align 8, !tbaa !70
  br label %20

20:                                               ; preds = %17, %16
  %21 = call i32 @uriFreeUriMembersMmW(ptr noundef nonnull %0, ptr noundef nonnull %.018)
  br label %22

22:                                               ; preds = %14, %20, %12, %5
  %.0 = phi i32 [ 2, %5 ], [ 10, %12 ], [ %15, %20 ], [ 0, %14 ]
  call void @llvm.lifetime.end.p0(i64 32, ptr nonnull %6) #7
  ret i32 %.0
}